target datalayout = "e-m:e-p270:32:32-p271:32:32-p272:64:64-i64:64-i128:128-f80:128-n8:16:32:64-S128"
target triple = "x86_64-pc-linux-gnu"

%struct.commit = type { %struct.object, i64, ptr, ptr, i32 }
%struct.object = type { i32, %struct.object_id }
%struct.object_id = type { [32 x i8], i32 }
%struct.commit_list = type { ptr, ptr }

; Function Attrs: nounwind uwtable
define dso_local ptr @commit_list_insert(ptr noundef %0, ptr noundef %1) #0 {
  %3 = alloca ptr, align 8
  %4 = alloca ptr, align 8
  %5 = alloca ptr, align 8
  store ptr %0, ptr %3, align 8, !tbaa !17
  store ptr %1, ptr %4, align 8, !tbaa !99
  call void @llvm.lifetime.start.p0(i64 8, ptr %5) #11
  %6 = call ptr @xmalloc(i64 noundef 16)
  store ptr %6, ptr %5, align 8, !tbaa !58
  %7 = load ptr, ptr %3, align 8, !tbaa !17
  %8 = load ptr, ptr %5, align 8, !tbaa !58
  %9 = getelementptr inbounds nuw %struct.commit_list, ptr %8, i32 0, i32 0
  store ptr %7, ptr %9, align 8, !tbaa !105
  %10 = load ptr, ptr %4, align 8, !tbaa !99
  %11 = load ptr, ptr %10, align 8, !tbaa !58
  %12 = load ptr, ptr %5, align 8, !tbaa !58
  %13 = getelementptr inbounds nuw %struct.commit_list, ptr %12, i32 0, i32 1
  store ptr %11, ptr %13, align 8, !tbaa !107
  %14 = load ptr, ptr %5, align 8, !tbaa !58
  %15 = load ptr, ptr %4, align 8, !tbaa !99
  store ptr %14, ptr %15, align 8, !tbaa !58
  %16 = load ptr, ptr %5, align 8, !tbaa !58
  call void @llvm.lifetime.end.p0(i64 8, ptr %5) #11
  ret ptr %16
}

; Function Attrs: nounwind uwtable
define dso_local ptr @commit_list_insert_by_date(ptr noundef %0, ptr noundef %1) #0 {
  %3 = alloca ptr, align 8
  %4 = alloca ptr, align 8
  %5 = alloca ptr, align 8
  %6 = alloca ptr, align 8
  store ptr %0, ptr %3, align 8, !tbaa !17
  store ptr %1, ptr %4, align 8, !tbaa !99
  call void @llvm.lifetime.start.p0(i64 8, ptr %5) #11
  %7 = load ptr, ptr %4, align 8, !tbaa !99
  store ptr %7, ptr %5, align 8, !tbaa !99
  call void @llvm.lifetime.start.p0(i64 8, ptr %6) #11
  br label %8

8:                                                ; preds = %23, %2
  %9 = load ptr, ptr %5, align 8, !tbaa !99
  %10 = load ptr, ptr %9, align 8, !tbaa !58
  store ptr %10, ptr %6, align 8, !tbaa !58
  %11 = icmp ne ptr %10, null
  br i1 %11, label %12, label %26

12:                                               ; preds = %8
  %13 = load ptr, ptr %6, align 8, !tbaa !58
  %14 = getelementptr inbounds nuw %struct.commit_list, ptr %13, i32 0, i32 0
  %15 = load ptr, ptr %14, align 8, !tbaa !105
  %16 = getelementptr inbounds nuw %struct.commit, ptr %15, i32 0, i32 1
  %17 = load i64, ptr %16, align 8, !tbaa !104
  %18 = load ptr, ptr %3, align 8, !tbaa !17
  %19 = getelementptr inbounds nuw %struct.commit, ptr %18, i32 0, i32 1
  %20 = load i64, ptr %19, align 8, !tbaa !104
  %21 = icmp ult i64 %17, %20
  br i1 %21, label %22, label %23

22:                                               ; preds = %12
  br label %26

23:                                               ; preds = %12
  %24 = load ptr, ptr %6, align 8, !tbaa !58
  %25 = getelementptr inbounds nuw %struct.commit_list, ptr %24, i32 0, i32 1
  store ptr %25, ptr %5, align 8, !tbaa !99
  br label %8, !llvm.loop !127

26:                                               ; preds = %22, %8
  %27 = load ptr, ptr %3, align 8, !tbaa !17
  %28 = load ptr, ptr %5, align 8, !tbaa !99
  %29 = call ptr @commit_list_insert(ptr noundef %27, ptr noundef %28)
  call void @llvm.lifetime.end.p0(i64 8, ptr %6) #11
  call void @llvm.lifetime.end.p0(i64 8, ptr %5) #11
  ret ptr %29
}