; Function Attrs: nounwind uwtable
define dso_local noundef ptr @commit_list_insert_by_date(ptr noundef %0, ptr noundef captures(none) %1) local_unnamed_addr #0 {
  %3 = load ptr, ptr %1, align 8, !tbaa !90
  %.not8 = icmp eq ptr %3, null
  br i1 %.not8, label %._crit_edge, label %.lr.ph

.lr.ph:                                           ; preds = %2
  %4 = getelementptr inbounds nuw i8, ptr %0, i64 40
  %5 = load i64, ptr %4, align 8, !tbaa !93
  %6 = load ptr, ptr %3, align 8, !tbaa !89
  %7 = getelementptr inbounds nuw i8, ptr %6, i64 40
  %8 = load i64, ptr %7, align 8, !tbaa !93
  %9 = icmp ult i64 %8, %5
  br i1 %9, label %._crit_edge, label %.lr.ph12

.lr.ph12:                                         ; preds = %.lr.ph, %13
  %10 = phi ptr [ %12, %13 ], [ %3, %.lr.ph ]
  %11 = getelementptr inbounds nuw i8, ptr %10, i64 8
  %12 = load ptr, ptr %11, align 8, !tbaa !90
  %.not = icmp eq ptr %12, null
  br i1 %.not, label %._crit_edge.loopexit, label %13, !llvm.loop !109

13:                                               ; preds = %.lr.ph12
  %14 = load ptr, ptr %12, align 8, !tbaa !89
  %15 = getelementptr inbounds nuw i8, ptr %14, i64 40
  %16 = load i64, ptr %15, align 8, !tbaa !93
  %17 = icmp ult i64 %16, %5
  br i1 %17, label %._crit_edge.loopexit, label %.lr.ph12, !llvm.loop !109

._crit_edge.loopexit:                             ; preds = %.lr.ph12, %13
  %18 = getelementptr inbounds nuw i8, ptr %10, i64 8
  br label %._crit_edge

._crit_edge:                                      ; preds = %._crit_edge.loopexit, %.lr.ph, %2
  %.0.lcssa = phi ptr [ %1, %2 ], [ %1, %.lr.ph ], [ %18, %._crit_edge.loopexit ]
  %19 = tail call ptr @xmalloc(i64 noundef 16) #24
  store ptr %0, ptr %19, align 8, !tbaa !89
  %20 = load ptr, ptr %.0.lcssa, align 8, !tbaa !90
  %21 = getelementptr inbounds nuw i8, ptr %19, i64 8
  store ptr %20, ptr %21, align 8, !tbaa !48
  store ptr %19, ptr %.0.lcssa, align 8, !tbaa !90
  ret ptr %19
}